target datalayout = "e-m:e-p270:32:32-p271:32:32-p272:64:64-i64:64-i128:128-f80:128-n8:16:32:64-S128"
target triple = "x86_64-pc-linux-gnu"

%struct._zend_objects_store = type { ptr, i32, i32, i32 }

; Function Attrs: nounwind uwtable
define void @zend_objects_store_init(ptr noundef %0, i32 noundef %1) #0 {
  %3 = alloca ptr, align 8
  %4 = alloca i32, align 4
  store ptr %0, ptr %3, align 8
  store i32 %1, ptr %4, align 4
  %5 = load i32, ptr %4, align 4
  %6 = zext i32 %5 to i64
  %7 = mul i64 %6, 8
  %8 = call i1 @llvm.is.constant.i64(i64 %7)
  br i1 %8, label %9, label %296

9:                                                ; preds = %2
  %10 = load i32, ptr %4, align 4
  %11 = zext i32 %10 to i64
  %12 = mul i64 %11, 8
  %13 = icmp ule i64 %12, 8
  br i1 %13, label %14, label %16

14:                                               ; preds = %9
  %15 = call noalias ptr @_emalloc_8()
  br label %294

16:                                               ; preds = %9
  %17 = load i32, ptr %4, align 4
  %18 = zext i32 %17 to i64
  %19 = mul i64 %18, 8
  %20 = icmp ule i64 %19, 16
  br i1 %20, label %21, label %23

21:                                               ; preds = %16
  %22 = call noalias ptr @_emalloc_16()
  br label %292

23:                                               ; preds = %16
  %24 = load i32, ptr %4, align 4
  %25 = zext i32 %24 to i64
  %26 = mul i64 %25, 8
  %27 = icmp ule i64 %26, 24
  br i1 %27, label %28, label %30

28:                                               ; preds = %23
  %29 = call noalias ptr @_emalloc_24()
  br label %290

30:                                               ; preds = %23
  %31 = load i32, ptr %4, align 4
  %32 = zext i32 %31 to i64
  %33 = mul i64 %32, 8
  %34 = icmp ule i64 %33, 32
  br i1 %34, label %35, label %37

35:                                               ; preds = %30
  %36 = call noalias ptr @_emalloc_32()
  br label %288

37:                                               ; preds = %30
  %38 = load i32, ptr %4, align 4
  %39 = zext i32 %38 to i64
  %40 = mul i64 %39, 8
  %41 = icmp ule i64 %40, 40
  br i1 %41, label %42, label %44

42:                                               ; preds = %37
  %43 = call noalias ptr @_emalloc_40()
  br label %286

44:                                               ; preds = %37
  %45 = load i32, ptr %4, align 4
  %46 = zext i32 %45 to i64
  %47 = mul i64 %46, 8
  %48 = icmp ule i64 %47, 48
  br i1 %48, label %49, label %51

49:                                               ; preds = %44
  %50 = call noalias ptr @_emalloc_48()
  br label %284

51:                                               ; preds = %44
  %52 = load i32, ptr %4, align 4
  %53 = zext i32 %52 to i64
  %54 = mul i64 %53, 8
  %55 = icmp ule i64 %54, 56
  br i1 %55, label %56, label %58

56:                                               ; preds = %51
  %57 = call noalias ptr @_emalloc_56()
  br label %282

58:                                               ; preds = %51
  %59 = load i32, ptr %4, align 4
  %60 = zext i32 %59 to i64
  %61 = mul i64 %60, 8
  %62 = icmp ule i64 %61, 64
  br i1 %62, label %63, label %65

63:                                               ; preds = %58
  %64 = call noalias ptr @_emalloc_64()
  br label %280

65:                                               ; preds = %58
  %66 = load i32, ptr %4, align 4
  %67 = zext i32 %66 to i64
  %68 = mul i64 %67, 8
  %69 = icmp ule i64 %68, 80
  br i1 %69, label %70, label %72

70:                                               ; preds = %65
  %71 = call noalias ptr @_emalloc_80()
  br label %278

72:                                               ; preds = %65
  %73 = load i32, ptr %4, align 4
  %74 = zext i32 %73 to i64
  %75 = mul i64 %74, 8
  %76 = icmp ule i64 %75, 96
  br i1 %76, label %77, label %79

77:                                               ; preds = %72
  %78 = call noalias ptr @_emalloc_96()
  br label %276

79:                                               ; preds = %72
  %80 = load i32, ptr %4, align 4
  %81 = zext i32 %80 to i64
  %82 = mul i64 %81, 8
  %83 = icmp ule i64 %82, 112
  br i1 %83, label %84, label %86

84:                                               ; preds = %79
  %85 = call noalias ptr @_emalloc_112()
  br label %274

86:                                               ; preds = %79
  %87 = load i32, ptr %4, align 4
  %88 = zext i32 %87 to i64
  %89 = mul i64 %88, 8
  %90 = icmp ule i64 %89, 128
  br i1 %90, label %91, label %93

91:                                               ; preds = %86
  %92 = call noalias ptr @_emalloc_128()
  br label %272

93:                                               ; preds = %86
  %94 = load i32, ptr %4, align 4
  %95 = zext i32 %94 to i64
  %96 = mul i64 %95, 8
  %97 = icmp ule i64 %96, 160
  br i1 %97, label %98, label %100

98:                                               ; preds = %93
  %99 = call noalias ptr @_emalloc_160()
  br label %270

100:                                              ; preds = %93
  %101 = load i32, ptr %4, align 4
  %102 = zext i32 %101 to i64
  %103 = mul i64 %102, 8
  %104 = icmp ule i64 %103, 192
  br i1 %104, label %105, label %107

105:                                              ; preds = %100
  %106 = call noalias ptr @_emalloc_192()
  br label %268

107:                                              ; preds = %100
  %108 = load i32, ptr %4, align 4
  %109 = zext i32 %108 to i64
  %110 = mul i64 %109, 8
  %111 = icmp ule i64 %110, 224
  br i1 %111, label %112, label %114

112:                                              ; preds = %107
  %113 = call noalias ptr @_emalloc_224()
  br label %266

114:                                              ; preds = %107
  %115 = load i32, ptr %4, align 4
  %116 = zext i32 %115 to i64
  %117 = mul i64 %116, 8
  %118 = icmp ule i64 %117, 256
  br i1 %118, label %119, label %121

119:                                              ; preds = %114
  %120 = call noalias ptr @_emalloc_256()
  br label %264

121:                                              ; preds = %114
  %122 = load i32, ptr %4, align 4
  %123 = zext i32 %122 to i64
  %124 = mul i64 %123, 8
  %125 = icmp ule i64 %124, 320
  br i1 %125, label %126, label %128

126:                                              ; preds = %121
  %127 = call noalias ptr @_emalloc_320()
  br label %262

128:                                              ; preds = %121
  %129 = load i32, ptr %4, align 4
  %130 = zext i32 %129 to i64
  %131 = mul i64 %130, 8
  %132 = icmp ule i64 %131, 384
  br i1 %132, label %133, label %135

133:                                              ; preds = %128
  %134 = call noalias ptr @_emalloc_384()
  br label %260

135:                                              ; preds = %128
  %136 = load i32, ptr %4, align 4
  %137 = zext i32 %136 to i64
  %138 = mul i64 %137, 8
  %139 = icmp ule i64 %138, 448
  br i1 %139, label %140, label %142

140:                                              ; preds = %135
  %141 = call noalias ptr @_emalloc_448()
  br label %258

142:                                              ; preds = %135
  %143 = load i32, ptr %4, align 4
  %144 = zext i32 %143 to i64
  %145 = mul i64 %144, 8
  %146 = icmp ule i64 %145, 512
  br i1 %146, label %147, label %149

147:                                              ; preds = %142
  %148 = call noalias ptr @_emalloc_512()
  br label %256

149:                                              ; preds = %142
  %150 = load i32, ptr %4, align 4
  %151 = zext i32 %150 to i64
  %152 = mul i64 %151, 8
  %153 = icmp ule i64 %152, 640
  br i1 %153, label %154, label %156

154:                                              ; preds = %149
  %155 = call noalias ptr @_emalloc_640()
  br label %254

156:                                              ; preds = %149
  %157 = load i32, ptr %4, align 4
  %158 = zext i32 %157 to i64
  %159 = mul i64 %158, 8
  %160 = icmp ule i64 %159, 768
  br i1 %160, label %161, label %163

161:                                              ; preds = %156
  %162 = call noalias ptr @_emalloc_768()
  br label %252

163:                                              ; preds = %156
  %164 = load i32, ptr %4, align 4
  %165 = zext i32 %164 to i64
  %166 = mul i64 %165, 8
  %167 = icmp ule i64 %166, 896
  br i1 %167, label %168, label %170

168:                                              ; preds = %163
  %169 = call noalias ptr @_emalloc_896()
  br label %250

170:                                              ; preds = %163
  %171 = load i32, ptr %4, align 4
  %172 = zext i32 %171 to i64
  %173 = mul i64 %172, 8
  %174 = icmp ule i64 %173, 1024
  br i1 %174, label %175, label %177

175:                                              ; preds = %170
  %176 = call noalias ptr @_emalloc_1024()
  br label %248

177:                                              ; preds = %170
  %178 = load i32, ptr %4, align 4
  %179 = zext i32 %178 to i64
  %180 = mul i64 %179, 8
  %181 = icmp ule i64 %180, 1280
  br i1 %181, label %182, label %184

182:                                              ; preds = %177
  %183 = call noalias ptr @_emalloc_1280()
  br label %246

184:                                              ; preds = %177
  %185 = load i32, ptr %4, align 4
  %186 = zext i32 %185 to i64
  %187 = mul i64 %186, 8
  %188 = icmp ule i64 %187, 1536
  br i1 %188, label %189, label %191

189:                                              ; preds = %184
  %190 = call noalias ptr @_emalloc_1536()
  br label %244

191:                                              ; preds = %184
  %192 = load i32, ptr %4, align 4
  %193 = zext i32 %192 to i64
  %194 = mul i64 %193, 8
  %195 = icmp ule i64 %194, 1792
  br i1 %195, label %196, label %198

196:                                              ; preds = %191
  %197 = call noalias ptr @_emalloc_1792()
  br label %242

198:                                              ; preds = %191
  %199 = load i32, ptr %4, align 4
  %200 = zext i32 %199 to i64
  %201 = mul i64 %200, 8
  %202 = icmp ule i64 %201, 2048
  br i1 %202, label %203, label %205

203:                                              ; preds = %198
  %204 = call noalias ptr @_emalloc_2048()
  br label %240

205:                                              ; preds = %198
  %206 = load i32, ptr %4, align 4
  %207 = zext i32 %206 to i64
  %208 = mul i64 %207, 8
  %209 = icmp ule i64 %208, 2560
  br i1 %209, label %210, label %212

210:                                              ; preds = %205
  %211 = call noalias ptr @_emalloc_2560()
  br label %238

212:                                              ; preds = %205
  %213 = load i32, ptr %4, align 4
  %214 = zext i32 %213 to i64
  %215 = mul i64 %214, 8
  %216 = icmp ule i64 %215, 3072
  br i1 %216, label %217, label %219

217:                                              ; preds = %212
  %218 = call noalias ptr @_emalloc_3072()
  br label %236

219:                                              ; preds = %212
  %220 = load i32, ptr %4, align 4
  %221 = zext i32 %220 to i64
  %222 = mul i64 %221, 8
  %223 = icmp ule i64 %222, 2093056
  br i1 %223, label %224, label %229

224:                                              ; preds = %219
  %225 = load i32, ptr %4, align 4
  %226 = zext i32 %225 to i64
  %227 = mul i64 %226, 8
  %228 = call noalias ptr @_emalloc_large(i64 noundef %227) #7
  br label %234

229:                                              ; preds = %219
  %230 = load i32, ptr %4, align 4
  %231 = zext i32 %230 to i64
  %232 = mul i64 %231, 8
  %233 = call noalias ptr @_emalloc_huge(i64 noundef %232) #7
  br label %234

234:                                              ; preds = %229, %224
  %235 = phi ptr [ %228, %224 ], [ %233, %229 ]
  br label %236

236:                                              ; preds = %234, %217
  %237 = phi ptr [ %218, %217 ], [ %235, %234 ]
  br label %238

238:                                              ; preds = %236, %210
  %239 = phi ptr [ %211, %210 ], [ %237, %236 ]
  br label %240

240:                                              ; preds = %238, %203
  %241 = phi ptr [ %204, %203 ], [ %239, %238 ]
  br label %242

242:                                              ; preds = %240, %196
  %243 = phi ptr [ %197, %196 ], [ %241, %240 ]
  br label %244

244:                                              ; preds = %242, %189
  %245 = phi ptr [ %190, %189 ], [ %243, %242 ]
  br label %246

246:                                              ; preds = %244, %182
  %247 = phi ptr [ %183, %182 ], [ %245, %244 ]
  br label %248

248:                                              ; preds = %246, %175
  %249 = phi ptr [ %176, %175 ], [ %247, %246 ]
  br label %250

250:                                              ; preds = %248, %168
  %251 = phi ptr [ %169, %168 ], [ %249, %248 ]
  br label %252

252:                                              ; preds = %250, %161
  %253 = phi ptr [ %162, %161 ], [ %251, %250 ]
  br label %254

254:                                              ; preds = %252, %154
  %255 = phi ptr [ %155, %154 ], [ %253, %252 ]
  br label %256

256:                                              ; preds = %254, %147
  %257 = phi ptr [ %148, %147 ], [ %255, %254 ]
  br label %258

258:                                              ; preds = %256, %140
  %259 = phi ptr [ %141, %140 ], [ %257, %256 ]
  br label %260

260:                                              ; preds = %258, %133
  %261 = phi ptr [ %134, %133 ], [ %259, %258 ]
  br label %262

262:                                              ; preds = %260, %126
  %263 = phi ptr [ %127, %126 ], [ %261, %260 ]
  br label %264

264:                                              ; preds = %262, %119
  %265 = phi ptr [ %120, %119 ], [ %263, %262 ]
  br label %266

266:                                              ; preds = %264, %112
  %267 = phi ptr [ %113, %112 ], [ %265, %264 ]
  br label %268

268:                                              ; preds = %266, %105
  %269 = phi ptr [ %106, %105 ], [ %267, %266 ]
  br label %270

270:                                              ; preds = %268, %98
  %271 = phi ptr [ %99, %98 ], [ %269, %268 ]
  br label %272

272:                                              ; preds = %270, %91
  %273 = phi ptr [ %92, %91 ], [ %271, %270 ]
  br label %274

274:                                              ; preds = %272, %84
  %275 = phi ptr [ %85, %84 ], [ %273, %272 ]
  br label %276

276:                                              ; preds = %274, %77
  %277 = phi ptr [ %78, %77 ], [ %275, %274 ]
  br label %278

278:                                              ; preds = %276, %70
  %279 = phi ptr [ %71, %70 ], [ %277, %276 ]
  br label %280

280:                                              ; preds = %278, %63
  %281 = phi ptr [ %64, %63 ], [ %279, %278 ]
  br label %282

282:                                              ; preds = %280, %56
  %283 = phi ptr [ %57, %56 ], [ %281, %280 ]
  br label %284

284:                                              ; preds = %282, %49
  %285 = phi ptr [ %50, %49 ], [ %283, %282 ]
  br label %286

286:                                              ; preds = %284, %42
  %287 = phi ptr [ %43, %42 ], [ %285, %284 ]
  br label %288

288:                                              ; preds = %286, %35
  %289 = phi ptr [ %36, %35 ], [ %287, %286 ]
  br label %290

290:                                              ; preds = %288, %28
  %291 = phi ptr [ %29, %28 ], [ %289, %288 ]
  br label %292

292:                                              ; preds = %290, %21
  %293 = phi ptr [ %22, %21 ], [ %291, %290 ]
  br label %294

294:                                              ; preds = %292, %14
  %295 = phi ptr [ %15, %14 ], [ %293, %292 ]
  br label %301

296:                                              ; preds = %2
  %297 = load i32, ptr %4, align 4
  %298 = zext i32 %297 to i64
  %299 = mul i64 %298, 8
  %300 = call noalias ptr @_emalloc(i64 noundef %299) #7
  br label %301

301:                                              ; preds = %296, %294
  %302 = phi ptr [ %295, %294 ], [ %300, %296 ]
  %303 = load ptr, ptr %3, align 8
  %304 = getelementptr inbounds %struct._zend_objects_store, ptr %303, i32 0, i32 0
  store ptr %302, ptr %304, align 8
  %305 = load ptr, ptr %3, align 8
  %306 = getelementptr inbounds %struct._zend_objects_store, ptr %305, i32 0, i32 1
  store i32 1, ptr %306, align 8
  %307 = load i32, ptr %4, align 4
  %308 = load ptr, ptr %3, align 8
  %309 = getelementptr inbounds %struct._zend_objects_store, ptr %308, i32 0, i32 2
  store i32 %307, ptr %309, align 4
  %310 = load ptr, ptr %3, align 8
  %311 = getelementptr inbounds %struct._zend_objects_store, ptr %310, i32 0, i32 3
  store i32 -1, ptr %311, align 8
  %312 = load ptr, ptr %3, align 8
  %313 = getelementptr inbounds %struct._zend_objects_store, ptr %312, i32 0, i32 0
  %314 = load ptr, ptr %313, align 8
  %315 = getelementptr inbounds ptr, ptr %314, i64 0
  call void @llvm.memset.p0.i64(ptr align 8 %315, i8 0, i64 8, i1 false)
  ret void
}