; Function Attrs: nounwind uwtable
define void @zend_objects_store_init(ptr nocapture noundef writeonly %0, i32 noundef %1) local_unnamed_addr #0 {
  %3 = zext i32 %1 to i64
  %4 = shl nuw nsw i64 %3, 3
  %5 = tail call noalias ptr @_emalloc(i64 noundef %4) #6
  store ptr %5, ptr %0, align 8
  %6 = getelementptr inbounds i8, ptr %0, i64 8
  store i32 1, ptr %6, align 8
  %7 = getelementptr inbounds i8, ptr %0, i64 12
  store i32 %1, ptr %7, align 4
  %8 = getelementptr inbounds i8, ptr %0, i64 16
  store i32 -1, ptr %8, align 8
  store i64 0, ptr %5, align 8
  ret void
}